CCS PCM C Compiler, Version 5.059, 5967               19-ago.-18 14:00

               Filename:   C:\Users\¡¡¡VIVA EL BASKET!!!\Desktop\Progra\PIC\Move\Move.lst

               ROM used:   160 words (2%)
                           Largest free fragment is 2048
               RAM used:   6 (2%) at main() level
                           7 (2%) worst case
               Stack used: 1 locations
               Stack size: 8

*
0000:  MOVLW  00
0001:  MOVWF  0A
0002:  GOTO   069
0003:  NOP
.................... #include<16F877a.h> 
.................... //////////// Standard Header file for the PIC16F877A device //////////////// 
.................... /////////////////////////////////////////////////////////////////////////// 
.................... ////        (C) Copyright 1996, 2014 Custom Computer Services          //// 
.................... //// This source code may only be used by licensed users of the CCS C  //// 
.................... //// compiler.  This source code may only be distributed to other      //// 
.................... //// licensed users of the CCS C compiler.  No other use, reproduction //// 
.................... //// or distribution is permitted without written permission.          //// 
.................... //// Derivative programs created using this software in object code    //// 
.................... //// form are not restricted in any way.                               //// 
.................... /////////////////////////////////////////////////////////////////////////// 
.................... #device PIC16F877A 
....................  
.................... #list 
....................  
.................... #use delay(clock=8M) 
*
0017:  MOVLW  22
0018:  MOVWF  04
0019:  BCF    03.7
001A:  MOVF   00,W
001B:  BTFSC  03.2
001C:  GOTO   02A
001D:  MOVLW  02
001E:  MOVWF  78
001F:  CLRF   77
0020:  DECFSZ 77,F
0021:  GOTO   020
0022:  DECFSZ 78,F
0023:  GOTO   01F
0024:  MOVLW  97
0025:  MOVWF  77
0026:  DECFSZ 77,F
0027:  GOTO   026
0028:  DECFSZ 00,F
0029:  GOTO   01D
002A:  RETURN
.................... #fuses NOLVP,NOWDT,HS 
.................... #define m1f pin_D2 
.................... #define m1b pin_D3 
.................... #define m2b pin_D1 
.................... #define m2f pin_D0 
....................  
.................... void go_backward(){ 
....................    output_low(m1f); 
*
003C:  BSF    03.5
003D:  BCF    08.2
003E:  BCF    03.5
003F:  BCF    08.2
....................    output_low(m2f); 
0040:  BSF    03.5
0041:  BCF    08.0
0042:  BCF    03.5
0043:  BCF    08.0
....................    output_high(m1b); 
0044:  BSF    03.5
0045:  BCF    08.3
0046:  BCF    03.5
0047:  BSF    08.3
....................    output_high(m2b); 
0048:  BSF    03.5
0049:  BCF    08.1
004A:  BCF    03.5
004B:  BSF    08.1
004C:  BCF    0A.3
004D:  BCF    0A.4
004E:  GOTO   086 (RETURN)
.................... } 
....................  
.................... void stop(){ 
....................    output_high(m1f); 
*
002B:  BSF    03.5
002C:  BCF    08.2
002D:  BCF    03.5
002E:  BSF    08.2
....................    output_high(m1b); 
002F:  BSF    03.5
0030:  BCF    08.3
0031:  BCF    03.5
0032:  BSF    08.3
....................    output_high(m2f); 
0033:  BSF    03.5
0034:  BCF    08.0
0035:  BCF    03.5
0036:  BSF    08.0
....................    output_high(m2b); 
0037:  BSF    03.5
0038:  BCF    08.1
0039:  BCF    03.5
003A:  BSF    08.1
003B:  RETURN
....................  
.................... } 
....................  
.................... void go_forward(){ 
....................    output_high(m1f); 
*
0004:  BSF    03.5
0005:  BCF    08.2
0006:  BCF    03.5
0007:  BSF    08.2
....................    output_high(m2f); 
0008:  BSF    03.5
0009:  BCF    08.0
000A:  BCF    03.5
000B:  BSF    08.0
....................    output_low(m1b); 
000C:  BSF    03.5
000D:  BCF    08.3
000E:  BCF    03.5
000F:  BCF    08.3
....................    output_low(m2b); 
0010:  BSF    03.5
0011:  BCF    08.1
0012:  BCF    03.5
0013:  BCF    08.1
0014:  BCF    0A.3
0015:  BCF    0A.4
0016:  GOTO   076 (RETURN)
....................  
.................... } 
....................  
.................... void turn(){ 
....................    output_high(m1b); 
*
004F:  BSF    03.5
0050:  BCF    08.3
0051:  BCF    03.5
0052:  BSF    08.3
....................    output_high(m2f); 
0053:  BSF    03.5
0054:  BCF    08.0
0055:  BCF    03.5
0056:  BSF    08.0
....................    output_low(m1f); 
0057:  BSF    03.5
0058:  BCF    08.2
0059:  BCF    03.5
005A:  BCF    08.2
....................    output_low(m2b); 
005B:  BSF    03.5
005C:  BCF    08.1
005D:  BCF    03.5
005E:  BCF    08.1
....................    delay_ms(2000); 
005F:  MOVLW  08
0060:  MOVWF  21
0061:  MOVLW  FA
0062:  MOVWF  22
0063:  CALL   017
0064:  DECFSZ 21,F
0065:  GOTO   061
0066:  BCF    0A.3
0067:  BCF    0A.4
0068:  GOTO   096 (RETURN)
.................... } 
....................  
.................... void main(){ 
0069:  MOVF   03,W
006A:  ANDLW  1F
006B:  MOVWF  03
006C:  BSF    03.5
006D:  BSF    1F.0
006E:  BSF    1F.1
006F:  BSF    1F.2
0070:  BCF    1F.3
0071:  MOVLW  07
0072:  MOVWF  1C
0073:  BCF    03.7
....................    while(true){ 
....................    go_forward(); 
0074:  BCF    03.5
0075:  GOTO   004
....................    delay_ms(2000); 
0076:  MOVLW  08
0077:  MOVWF  21
0078:  MOVLW  FA
0079:  MOVWF  22
007A:  CALL   017
007B:  DECFSZ 21,F
007C:  GOTO   078
....................    stop(); 
007D:  CALL   02B
....................    delay_ms(500); 
007E:  MOVLW  02
007F:  MOVWF  21
0080:  MOVLW  FA
0081:  MOVWF  22
0082:  CALL   017
0083:  DECFSZ 21,F
0084:  GOTO   080
....................    go_backward(); 
0085:  GOTO   03C
....................    delay_ms(2000); 
0086:  MOVLW  08
0087:  MOVWF  21
0088:  MOVLW  FA
0089:  MOVWF  22
008A:  CALL   017
008B:  DECFSZ 21,F
008C:  GOTO   088
....................    stop(); 
008D:  CALL   02B
....................    delay_ms(500); 
008E:  MOVLW  02
008F:  MOVWF  21
0090:  MOVLW  FA
0091:  MOVWF  22
0092:  CALL   017
0093:  DECFSZ 21,F
0094:  GOTO   090
....................    turn(); 
0095:  GOTO   04F
....................    stop(); 
0096:  CALL   02B
....................    delay_ms(500); 
0097:  MOVLW  02
0098:  MOVWF  21
0099:  MOVLW  FA
009A:  MOVWF  22
009B:  CALL   017
009C:  DECFSZ 21,F
009D:  GOTO   099
009E:  GOTO   075
....................    } 
.................... } 
009F:  SLEEP

Configuration Fuses:
   Word  1: 3F72   HS NOWDT PUT BROWNOUT NOLVP NOCPD NOWRT NODEBUG NOPROTECT
