CCS PCM C Compiler, Version 5.059, 5967               16-ago.-18 19:03

               Filename:   C:\Users\¡¡¡VIVA EL BASKET!!!\Desktop\Progra\PIC\Prueba servo proyecto(home)\Prueba servo proyecto(home).lst

               ROM used:   133 words (2%)
                           Largest free fragment is 2048
               RAM used:   7 (2%) at main() level
                           8 (2%) worst case
               Stack used: 1 locations
               Stack size: 8

*
0000:  MOVLW  00
0001:  MOVWF  0A
0002:  GOTO   029
0003:  NOP
.................... #include <16f877a.h> 
.................... //////////// Standard Header file for the PIC16F877A device //////////////// 
.................... /////////////////////////////////////////////////////////////////////////// 
.................... ////        (C) Copyright 1996, 2014 Custom Computer Services          //// 
.................... //// This source code may only be used by licensed users of the CCS C  //// 
.................... //// compiler.  This source code may only be distributed to other      //// 
.................... //// licensed users of the CCS C compiler.  No other use, reproduction //// 
.................... //// or distribution is permitted without written permission.          //// 
.................... //// Derivative programs created using this software in object code    //// 
.................... //// form are not restricted in any way.                               //// 
.................... /////////////////////////////////////////////////////////////////////////// 
.................... #device PIC16F877A 
....................  
.................... #list 
....................  
.................... #use DELAY(CLOCK=8M) 
0004:  MOVLW  21
0005:  MOVWF  04
0006:  BCF    03.7
0007:  MOVF   00,W
0008:  BTFSC  03.2
0009:  GOTO   017
000A:  MOVLW  02
000B:  MOVWF  78
000C:  CLRF   77
000D:  DECFSZ 77,F
000E:  GOTO   00D
000F:  DECFSZ 78,F
0010:  GOTO   00C
0011:  MOVLW  97
0012:  MOVWF  77
0013:  DECFSZ 77,F
0014:  GOTO   013
0015:  DECFSZ 00,F
0016:  GOTO   00A
0017:  RETURN
0018:  MOVLW  08
0019:  SUBWF  22,F
001A:  BTFSS  03.0
001B:  GOTO   028
001C:  MOVLW  22
001D:  MOVWF  04
001E:  BCF    03.7
001F:  BCF    03.0
0020:  RRF    00,F
0021:  MOVF   00,W
0022:  BTFSC  03.2
0023:  GOTO   028
0024:  GOTO   026
0025:  NOP
0026:  DECFSZ 00,F
0027:  GOTO   025
0028:  RETURN
.................... #FUSES HS, NOWDT, NOLVP 
.................... #define b pin_B2 
.................... #define h pin_B3 
.................... #define c pin_B4 
.................... #define m pin_B5 
.................... #define g pin_B6 
.................... int i; 
....................  
.................... void main(){ 
0029:  MOVF   03,W
002A:  ANDLW  1F
002B:  MOVWF  03
002C:  BSF    03.5
002D:  BSF    1F.0
002E:  BSF    1F.1
002F:  BSF    1F.2
0030:  BCF    1F.3
0031:  MOVLW  07
0032:  MOVWF  1C
0033:  BCF    03.7
....................    //for(i=0;i<=50;i++){ 
....................      while(true){ 
....................      output_high(b); 
0034:  BCF    06.2
0035:  BCF    03.5
0036:  BSF    06.2
....................      delay_us(2600); 
0037:  MOVLW  02
0038:  MOVWF  21
0039:  CALL   004
003A:  MOVLW  03
003B:  MOVWF  21
003C:  MOVLW  C6
003D:  MOVWF  22
003E:  CALL   018
003F:  DECFSZ 21,F
0040:  GOTO   03C
....................      output_low(b); 
0041:  BSF    03.5
0042:  BCF    06.2
0043:  BCF    03.5
0044:  BCF    06.2
....................      output_high(h); 
0045:  BSF    03.5
0046:  BCF    06.3
0047:  BCF    03.5
0048:  BSF    06.3
....................      delay_us(2000); 
0049:  MOVLW  02
004A:  MOVWF  21
004B:  CALL   004
....................      output_low(h); 
004C:  BSF    03.5
004D:  BCF    06.3
004E:  BCF    03.5
004F:  BCF    06.3
....................      output_high(c); 
0050:  BSF    03.5
0051:  BCF    06.4
0052:  BCF    03.5
0053:  BSF    06.4
....................      delay_us(500); 
0054:  MOVLW  02
0055:  MOVWF  21
0056:  MOVLW  F8
0057:  MOVWF  22
0058:  CALL   018
0059:  DECFSZ 21,F
005A:  GOTO   056
....................      output_low(c); 
005B:  BSF    03.5
005C:  BCF    06.4
005D:  BCF    03.5
005E:  BCF    06.4
....................      output_high(m); 
005F:  BSF    03.5
0060:  BCF    06.5
0061:  BCF    03.5
0062:  BSF    06.5
....................      delay_us(1600); 
0063:  MOVLW  01
0064:  MOVWF  21
0065:  CALL   004
0066:  MOVLW  03
0067:  MOVWF  21
0068:  MOVLW  C6
0069:  MOVWF  22
006A:  CALL   018
006B:  DECFSZ 21,F
006C:  GOTO   068
....................      output_low(m); 
006D:  BSF    03.5
006E:  BCF    06.5
006F:  BCF    03.5
0070:  BCF    06.5
....................      output_high(g); 
0071:  BSF    03.5
0072:  BCF    06.6
0073:  BCF    03.5
0074:  BSF    06.6
....................      delay_us(1100); 
0075:  MOVLW  01
0076:  MOVWF  21
0077:  CALL   004
0078:  MOVLW  64
0079:  MOVWF  22
007A:  CALL   018
....................      output_low(g); 
007B:  BSF    03.5
007C:  BCF    06.6
007D:  BCF    03.5
007E:  BCF    06.6
....................      delay_us(19000); 
007F:  MOVLW  13
0080:  MOVWF  21
0081:  CALL   004
0082:  BSF    03.5
0083:  GOTO   034
....................    } 
.................... } 
0084:  SLEEP

Configuration Fuses:
   Word  1: 3F72   HS NOWDT PUT BROWNOUT NOLVP NOCPD NOWRT NODEBUG NOPROTECT
